target datalayout = "e-m:e-p270:32:32-p271:32:32-p272:64:64-i64:64-i128:128-f80:128-n8:16:32:64-S128"
target triple = "x86_64-pc-linux-gnu"

@bio_stdout = internal global ptr null, align 8
@.str.86 = private unnamed_addr constant [2 x i8] c"\0A\00", align 1
@.str.233 = private unnamed_addr constant [19 x i8] c"%s%s, cipher %s %s\00", align 1
@.str.234 = private unnamed_addr constant [3 x i8] c", \00", align 1
@.str.235 = private unnamed_addr constant [13 x i8] c", temp key: \00", align 1
@.str.236 = private unnamed_addr constant [12 x i8] c", digest=%s\00", align 1

; Function Attrs: nounwind uwtable
define internal void @print_details(ptr noundef %0, ptr noundef %1) #0 {
  %3 = alloca ptr, align 8
  %4 = alloca ptr, align 8
  %5 = alloca ptr, align 8
  %6 = alloca i32, align 4
  %7 = alloca ptr, align 8
  %8 = alloca ptr, align 8
  %9 = alloca ptr, align 8
  store ptr %0, ptr %3, align 8, !tbaa !17
  store ptr %1, ptr %4, align 8, !tbaa !11
  call void @llvm.lifetime.start.p0(i64 8, ptr %5) #10
  call void @llvm.lifetime.start.p0(i64 4, ptr %6) #10
  call void @llvm.lifetime.start.p0(i64 8, ptr %7) #10
  call void @llvm.lifetime.start.p0(i64 8, ptr %8) #10
  %10 = load ptr, ptr %3, align 8, !tbaa !17
  %11 = call ptr @SSL_get_current_cipher(ptr noundef %10)
  store ptr %11, ptr %5, align 8, !tbaa !72
  %12 = load ptr, ptr @bio_stdout, align 8, !tbaa !35
  %13 = load ptr, ptr %4, align 8, !tbaa !11
  %14 = load ptr, ptr %3, align 8, !tbaa !17
  %15 = call ptr @SSL_get_version(ptr noundef %14)
  %16 = load ptr, ptr %5, align 8, !tbaa !72
  %17 = call ptr @SSL_CIPHER_get_version(ptr noundef %16)
  %18 = load ptr, ptr %5, align 8, !tbaa !72
  %19 = call ptr @SSL_CIPHER_get_name(ptr noundef %18)
  %20 = call i32 (ptr, ptr, ...) @BIO_printf(ptr noundef %12, ptr noundef @.str.233, ptr noundef %13, ptr noundef %15, ptr noundef %17, ptr noundef %19)
  %21 = load ptr, ptr %3, align 8, !tbaa !17
  %22 = call ptr @SSL_get0_peer_certificate(ptr noundef %21)
  store ptr %22, ptr %7, align 8, !tbaa !56
  %23 = load ptr, ptr %7, align 8, !tbaa !56
  %24 = icmp ne ptr %23, null
  br i1 %24, label %25, label %36

25:                                               ; preds = %2
  call void @llvm.lifetime.start.p0(i64 8, ptr %9) #10
  %26 = load ptr, ptr %7, align 8, !tbaa !56
  %27 = call ptr @X509_get0_pubkey(ptr noundef %26)
  store ptr %27, ptr %9, align 8, !tbaa !46
  %28 = load ptr, ptr %9, align 8, !tbaa !46
  %29 = icmp ne ptr %28, null
  br i1 %29, label %30, label %35

30:                                               ; preds = %25
  %31 = load ptr, ptr @bio_stdout, align 8, !tbaa !35
  %32 = call i32 @BIO_puts(ptr noundef %31, ptr noundef @.str.234)
  %33 = load ptr, ptr @bio_stdout, align 8, !tbaa !35
  %34 = load ptr, ptr %9, align 8, !tbaa !46
  call void @print_key_details(ptr noundef %33, ptr noundef %34)
  br label %35

35:                                               ; preds = %30, %25
  call void @llvm.lifetime.end.p0(i64 8, ptr %9) #10
  br label %36

36:                                               ; preds = %35, %2
  %37 = load ptr, ptr %3, align 8, !tbaa !17
  %38 = call i64 @SSL_ctrl(ptr noundef %37, i32 noundef 109, i64 noundef 0, ptr noundef %8)
  %39 = icmp ne i64 %38, 0
  br i1 %39, label %40, label %46

40:                                               ; preds = %36
  %41 = load ptr, ptr @bio_stdout, align 8, !tbaa !35
  %42 = call i32 @BIO_puts(ptr noundef %41, ptr noundef @.str.235)
  %43 = load ptr, ptr @bio_stdout, align 8, !tbaa !35
  %44 = load ptr, ptr %8, align 8, !tbaa !46
  call void @print_key_details(ptr noundef %43, ptr noundef %44)
  %45 = load ptr, ptr %8, align 8, !tbaa !46
  call void @EVP_PKEY_free(ptr noundef %45)
  br label %46

46:                                               ; preds = %40, %36
  %47 = load ptr, ptr %3, align 8, !tbaa !17
  %48 = call i64 @SSL_ctrl(ptr noundef %47, i32 noundef 108, i64 noundef 0, ptr noundef %6)
  %49 = icmp ne i64 %48, 0
  br i1 %49, label %50, label %55

50:                                               ; preds = %46
  %51 = load ptr, ptr @bio_stdout, align 8, !tbaa !35
  %52 = load i32, ptr %6, align 4, !tbaa !4
  %53 = call ptr @OBJ_nid2sn(i32 noundef %52)
  %54 = call i32 (ptr, ptr, ...) @BIO_printf(ptr noundef %51, ptr noundef @.str.236, ptr noundef %53)
  br label %55

55:                                               ; preds = %50, %46
  %56 = load ptr, ptr @bio_stdout, align 8, !tbaa !35
  %57 = call i32 (ptr, ptr, ...) @BIO_printf(ptr noundef %56, ptr noundef @.str.86)
  call void @llvm.lifetime.end.p0(i64 8, ptr %8) #10
  call void @llvm.lifetime.end.p0(i64 8, ptr %7) #10
  call void @llvm.lifetime.end.p0(i64 4, ptr %6) #10
  call void @llvm.lifetime.end.p0(i64 8, ptr %5) #10
  ret void
}