; Function Attrs: nounwind uwtable
define internal fastcc void @print_details(ptr noundef %0, ptr noundef %1) unnamed_addr #7 {
  %3 = alloca i32, align 4
  %4 = alloca ptr, align 8
  call void @llvm.lifetime.start.p0(i64 4, ptr nonnull %3) #23
  call void @llvm.lifetime.start.p0(i64 8, ptr nonnull %4) #23
  %5 = tail call ptr @SSL_get_current_cipher(ptr noundef %0) #23
  %6 = load ptr, ptr @bio_stdout, align 8, !tbaa !19
  %7 = tail call ptr @SSL_get_version(ptr noundef %0) #23
  %8 = tail call ptr @SSL_CIPHER_get_version(ptr noundef %5) #23
  %9 = tail call ptr @SSL_CIPHER_get_name(ptr noundef %5) #23
  %10 = tail call i32 (ptr, ptr, ...) @BIO_printf(ptr noundef %6, ptr noundef nonnull @.str.233, ptr noundef %1, ptr noundef %7, ptr noundef %8, ptr noundef %9) #23
  %11 = tail call ptr @SSL_get0_peer_certificate(ptr noundef %0) #23
  %.not = icmp eq ptr %11, null
  br i1 %.not, label %18, label %12

12:                                               ; preds = %2
  %13 = tail call ptr @X509_get0_pubkey(ptr noundef nonnull %11) #23
  %.not13 = icmp eq ptr %13, null
  br i1 %.not13, label %18, label %14

14:                                               ; preds = %12
  %15 = load ptr, ptr @bio_stdout, align 8, !tbaa !19
  %16 = tail call i32 @BIO_puts(ptr noundef %15, ptr noundef nonnull @.str.234) #23
  %17 = load ptr, ptr @bio_stdout, align 8, !tbaa !19
  tail call fastcc void @print_key_details(ptr noundef %17, ptr noundef nonnull %13)
  br label %18

18:                                               ; preds = %12, %14, %2
  %19 = call i64 @SSL_ctrl(ptr noundef %0, i32 noundef 109, i64 noundef 0, ptr noundef nonnull %4) #23
  %.not14 = icmp eq i64 %19, 0
  br i1 %.not14, label %26, label %20

20:                                               ; preds = %18
  %21 = load ptr, ptr @bio_stdout, align 8, !tbaa !19
  %22 = call i32 @BIO_puts(ptr noundef %21, ptr noundef nonnull @.str.235) #23
  %23 = load ptr, ptr @bio_stdout, align 8, !tbaa !19
  %24 = load ptr, ptr %4, align 8, !tbaa !45
  call fastcc void @print_key_details(ptr noundef %23, ptr noundef %24)
  %25 = load ptr, ptr %4, align 8, !tbaa !45
  call void @EVP_PKEY_free(ptr noundef %25) #23
  br label %26

26:                                               ; preds = %20, %18
  %27 = call i64 @SSL_ctrl(ptr noundef %0, i32 noundef 108, i64 noundef 0, ptr noundef nonnull %3) #23
  %.not15 = icmp eq i64 %27, 0
  br i1 %.not15, label %33, label %28

28:                                               ; preds = %26
  %29 = load ptr, ptr @bio_stdout, align 8, !tbaa !19
  %30 = load i32, ptr %3, align 4, !tbaa !4
  %31 = call ptr @OBJ_nid2sn(i32 noundef %30) #23
  %32 = call i32 (ptr, ptr, ...) @BIO_printf(ptr noundef %29, ptr noundef nonnull @.str.236, ptr noundef %31) #23
  br label %33

33:                                               ; preds = %28, %26
  %34 = load ptr, ptr @bio_stdout, align 8, !tbaa !19
  %35 = call i32 (ptr, ptr, ...) @BIO_printf(ptr noundef %34, ptr noundef nonnull @.str.86) #23
  call void @llvm.lifetime.end.p0(i64 8, ptr nonnull %4) #23
  call void @llvm.lifetime.end.p0(i64 4, ptr nonnull %3) #23
  ret void
}